SF:/Users/qiaopengjun/Code/rust/2025/code-trio/packages/rust/linked_list/src/lib.rs
FN:82,_RNvCs56QD4DelUiD_11linked_list11list_to_vec
FN:70,_RNvCs56QD4DelUiD_11linked_list11vec_to_list
FN:15,_RNvCs56QD4DelUiD_11linked_list19remove_nth_from_end
FN:41,_RNvCs56QD4DelUiD_11linked_list26remove_nth_from_end_unsafe
FN:10,_RNvMCs56QD4DelUiD_11linked_listNtB2_8ListNode3newB2_
FN:127,_RNvNtCs56QD4DelUiD_11linked_list5testss_15test_empty_list
FN:106,_RNvNtCs56QD4DelUiD_11linked_list5testss_16test_delete_head
FN:113,_RNvNtCs56QD4DelUiD_11linked_list5testss_16test_delete_tail
FN:99,_RNvNtCs56QD4DelUiD_11linked_list5testss_16test_normal_case
FN:120,_RNvNtCs56QD4DelUiD_11linked_list5testss_16test_single_node
FN:152,_RNvNtCs56QD4DelUiD_11linked_list5testss_20test_k_equals_length
FN:188,_RNvNtCs56QD4DelUiD_11linked_list5testss_22test_unsafe_empty_list
FN:141,_RNvNtCs56QD4DelUiD_11linked_list5testss_23test_k_zero_or_negative
FN:167,_RNvNtCs56QD4DelUiD_11linked_list5testss_23test_unsafe_delete_head
FN:174,_RNvNtCs56QD4DelUiD_11linked_list5testss_23test_unsafe_delete_tail
FN:160,_RNvNtCs56QD4DelUiD_11linked_list5testss_23test_unsafe_normal_case
FN:181,_RNvNtCs56QD4DelUiD_11linked_list5testss_23test_unsafe_single_node
FN:134,_RNvNtCs56QD4DelUiD_11linked_list5testss_26test_k_greater_than_length
FN:202,_RNvNtCs56QD4DelUiD_11linked_list5testss_30test_unsafe_k_zero_or_negative
FN:220,_RNvNtCs56QD4DelUiD_11linked_list5testss_32test_unsafe_short_list_edge_case
FN:195,_RNvNtCs56QD4DelUiD_11linked_list5testss_33test_unsafe_k_greater_than_length
FN:213,_RNvNtCs56QD4DelUiD_11linked_list5testss_37test_unsafe_k_much_larger_than_length
FNDA:19,_RNvCs56QD4DelUiD_11linked_list11list_to_vec
FNDA:19,_RNvCs56QD4DelUiD_11linked_list11vec_to_list
FNDA:9,_RNvCs56QD4DelUiD_11linked_list19remove_nth_from_end
FNDA:10,_RNvCs56QD4DelUiD_11linked_list26remove_nth_from_end_unsafe
FNDA:68,_RNvMCs56QD4DelUiD_11linked_listNtB2_8ListNode3newB2_
FNDA:1,_RNvNtCs56QD4DelUiD_11linked_list5testss_15test_empty_list
FNDA:1,_RNvNtCs56QD4DelUiD_11linked_list5testss_16test_delete_head
FNDA:1,_RNvNtCs56QD4DelUiD_11linked_list5testss_16test_delete_tail
FNDA:1,_RNvNtCs56QD4DelUiD_11linked_list5testss_16test_normal_case
FNDA:1,_RNvNtCs56QD4DelUiD_11linked_list5testss_16test_single_node
FNDA:1,_RNvNtCs56QD4DelUiD_11linked_list5testss_20test_k_equals_length
FNDA:1,_RNvNtCs56QD4DelUiD_11linked_list5testss_22test_unsafe_empty_list
FNDA:1,_RNvNtCs56QD4DelUiD_11linked_list5testss_23test_k_zero_or_negative
FNDA:1,_RNvNtCs56QD4DelUiD_11linked_list5testss_23test_unsafe_delete_head
FNDA:1,_RNvNtCs56QD4DelUiD_11linked_list5testss_23test_unsafe_delete_tail
FNDA:1,_RNvNtCs56QD4DelUiD_11linked_list5testss_23test_unsafe_normal_case
FNDA:1,_RNvNtCs56QD4DelUiD_11linked_list5testss_23test_unsafe_single_node
FNDA:1,_RNvNtCs56QD4DelUiD_11linked_list5testss_26test_k_greater_than_length
FNDA:1,_RNvNtCs56QD4DelUiD_11linked_list5testss_30test_unsafe_k_zero_or_negative
FNDA:1,_RNvNtCs56QD4DelUiD_11linked_list5testss_32test_unsafe_short_list_edge_case
FNDA:1,_RNvNtCs56QD4DelUiD_11linked_list5testss_33test_unsafe_k_greater_than_length
FNDA:1,_RNvNtCs56QD4DelUiD_11linked_list5testss_37test_unsafe_k_much_larger_than_length
FNF:22
FNH:22
DA:10,68
DA:11,68
DA:12,68
DA:15,9
DA:16,9
DA:17,3
DA:18,6
DA:19,6
DA:20,6
DA:21,6
DA:22,6
DA:23,6
DA:24,6
DA:25,14
DA:26,1
DA:27,13
DA:28,13
DA:31,10
DA:32,5
DA:33,5
DA:34,5
DA:36,5
DA:37,5
DA:38,5
DA:39,9
DA:41,10
DA:42,10
DA:43,10
DA:44,3
DA:45,7
DA:46,7
DA:47,7
DA:48,7
DA:49,7
DA:50,7
DA:51,7
DA:52,7
DA:53,17
DA:54,3
DA:55,14
DA:56,14
DA:59,9
DA:60,5
DA:61,5
DA:62,5
DA:64,4
DA:65,4
DA:66,4
DA:67,4
DA:68,10
DA:70,19
DA:71,19
DA:72,19
DA:74,49
DA:75,49
DA:76,49
DA:77,49
DA:79,19
DA:80,19
DA:82,19
DA:83,19
DA:84,19
DA:86,59
DA:87,40
DA:88,40
DA:89,40
DA:91,19
DA:92,19
DA:99,1
DA:100,1
DA:101,1
DA:102,1
DA:103,1
DA:106,1
DA:107,1
DA:108,1
DA:109,1
DA:110,1
DA:113,1
DA:114,1
DA:115,1
DA:116,1
DA:117,1
DA:120,1
DA:121,1
DA:122,1
DA:123,1
DA:124,1
DA:127,1
DA:128,1
DA:129,1
DA:130,1
DA:131,1
DA:134,1
DA:135,1
DA:136,1
DA:137,1
DA:138,1
DA:141,1
DA:142,1
DA:143,1
DA:144,1
DA:146,1
DA:147,1
DA:148,1
DA:149,1
DA:152,1
DA:153,1
DA:154,1
DA:155,1
DA:156,1
DA:160,1
DA:161,1
DA:162,1
DA:163,1
DA:164,1
DA:167,1
DA:168,1
DA:169,1
DA:170,1
DA:171,1
DA:174,1
DA:175,1
DA:176,1
DA:177,1
DA:178,1
DA:181,1
DA:182,1
DA:183,1
DA:184,1
DA:185,1
DA:188,1
DA:189,1
DA:190,1
DA:191,1
DA:192,1
DA:195,1
DA:196,1
DA:197,1
DA:198,1
DA:199,1
DA:202,1
DA:203,1
DA:204,1
DA:205,1
DA:207,1
DA:208,1
DA:209,1
DA:210,1
DA:213,1
DA:214,1
DA:215,1
DA:216,1
DA:217,1
DA:220,1
DA:221,1
DA:222,1
DA:223,1
DA:224,1
BRF:0
BRH:0
LF:159
LH:159
end_of_record